; Function Attrs: mustprogress uwtable
define hidden void @_ZN5GraphC2Em(ptr noundef nonnull align 8 dereferenceable(48) %0, i64 noundef %1) unnamed_addr #4 align 2 personality ptr @__gxx_personality_v0 {
  %3 = getelementptr inbounds i8, ptr %0, i64 8
  store i32 0, ptr %3, align 8
  %4 = getelementptr inbounds i8, ptr %0, i64 16
  store ptr null, ptr %4, align 8
  %5 = getelementptr inbounds i8, ptr %0, i64 24
  store ptr %3, ptr %5, align 8
  %6 = getelementptr inbounds i8, ptr %0, i64 32
  store ptr %3, ptr %6, align 8
  %7 = getelementptr inbounds i8, ptr %0, i64 40
  store i64 0, ptr %7, align 8
  %.not = icmp eq i64 %1, 0
  br i1 %.not, label %._crit_edge, label %.lr.ph

.lr.ph:                                           ; preds = %2, %8
  %.06 = phi i64 [ %9, %8 ], [ 0, %2 ]
  invoke void @_ZN5Graph9addVertexEm(ptr noundef nonnull align 8 dereferenceable(48) %0, i64 noundef %.06)
          to label %8 unwind label %10

8:                                                ; preds = %.lr.ph
  %9 = add nuw i64 %.06, 1
  %exitcond.not = icmp eq i64 %9, %1
  br i1 %exitcond.not, label %._crit_edge, label %.lr.ph, !llvm.loop !138

10:                                               ; preds = %.lr.ph
  %11 = landingpad { ptr, i32 }
          cleanup
  tail call void @_ZNSt3mapImN5Graph6VertexESt4lessImESaISt4pairIKmS1_EEED2Ev(ptr noundef nonnull align 8 dereferenceable(48) %0) #29
  resume { ptr, i32 } %11

._crit_edge:                                      ; preds = %8, %2
  ret void
}